target datalayout = "e-m:e-p270:32:32-p271:32:32-p272:64:64-i64:64-i128:128-f80:128-n8:16:32:64-S128"
target triple = "x86_64-pc-linux-gnu"

%class.RAROptions = type { i32, i32, i8, i8, i8, i64, [2048 x i32], [2048 x i32], i32, i8, [2048 x i32], [2048 x i32], i32, i32, i32, i32, [2048 x i32], [2048 x i32], i8, i8, i8, [2048 x i32], i32, i32, i32, i32, i32, i32, i32, i32, i8, i8, i8, i8, i8, i32, i32, i8, i8, i8, i8, i8, i32, i32, i64, i32, i8, i8, i8, i32, i32, i8, i8, i8, i8, i32, i32, i8, i8, i8, i8, [128 x i32], [128 x i32], i8, i8, i8, i8, i8, %class.RarTime, %class.RarTime, %class.RarTime, i8, i8, i8, %class.RarTime, %class.RarTime, %class.RarTime, i8, i8, i8, i64, i64, i8, i8, i8, [16 x %struct.FilterMode], [2048 x i32], i32, i32, i32, i32, i32, i32, i8, [2048 x i32], i32, [2048 x i32], i32, i32, i64, ptr, ptr, ptr }
%class.RarTime = type { i64 }
%struct.FilterMode = type { i32, i32, i32 }
%struct.FindData = type <{ [2048 x i32], i64, i32, i8, i8, [2 x i8], %class.RarTime, %class.RarTime, %class.RarTime, i32, i8, [3 x i8] }>

; Function Attrs: mustprogress nounwind uwtable
define linkonce_odr void @_ZN7RarTime5ResetEv(ptr noundef nonnull align 8 dereferenceable(8) %0) #7 comdat align 2 {
  %2 = alloca ptr, align 8
  store ptr %0, ptr %2, align 8, !tbaa !124
  %3 = load ptr, ptr %2, align 8
  %4 = getelementptr inbounds nuw %class.RarTime, ptr %3, i32 0, i32 0
  store i64 0, ptr %4, align 8, !tbaa !126
  ret void
}

; Function Attrs: mustprogress uwtable
define linkonce_odr void @_ZN7RarTimeC2Ev(ptr noundef nonnull align 8 dereferenceable(8) %0) unnamed_addr #0 comdat align 2 {
  %2 = alloca ptr, align 8
  store ptr %0, ptr %2, align 8, !tbaa !124
  %3 = load ptr, ptr %2, align 8
  call void @_ZN7RarTime5ResetEv(ptr noundef nonnull align 8 dereferenceable(8) %3)
  ret void
}

; Function Attrs: inlinehint mustprogress uwtable
define linkonce_odr void @_ZN8FindDataC2Ev(ptr noundef nonnull align 8 dereferenceable(8237) %0) unnamed_addr #8 comdat align 2 {
  %2 = alloca ptr, align 8
  store ptr %0, ptr %2, align 8, !tbaa !122
  %3 = load ptr, ptr %2, align 8
  %4 = getelementptr inbounds nuw %struct.FindData, ptr %3, i32 0, i32 6
  call void @_ZN7RarTimeC2Ev(ptr noundef nonnull align 8 dereferenceable(8) %4)
  %5 = getelementptr inbounds nuw %struct.FindData, ptr %3, i32 0, i32 7
  call void @_ZN7RarTimeC2Ev(ptr noundef nonnull align 8 dereferenceable(8) %5)
  %6 = getelementptr inbounds nuw %struct.FindData, ptr %3, i32 0, i32 8
  call void @_ZN7RarTimeC2Ev(ptr noundef nonnull align 8 dereferenceable(8) %6)
  ret void
}

; Function Attrs: mustprogress uwtable
define internal noundef zeroext i1 @_ZL10LinkInPathPKw(ptr noundef %0) #0 {
  %2 = alloca i1, align 1
  %3 = alloca ptr, align 8
  %4 = alloca [2048 x i32], align 16
  %5 = alloca i32, align 4
  %6 = alloca ptr, align 8
  %7 = alloca %struct.FindData, align 8
  store ptr %0, ptr %3, align 8, !tbaa !8
  call void @llvm.lifetime.start.p0(i64 8192, ptr %4) #11
  %8 = load ptr, ptr %3, align 8, !tbaa !8
  %9 = call i64 @wcslen(ptr noundef %8) #12
  %10 = icmp uge i64 %9, 2048
  br i1 %10, label %11, label %12

11:                                               ; preds = %1
  store i1 true, ptr %2, align 1
  store i32 1, ptr %5, align 4
  br label %53

12:                                               ; preds = %1
  %13 = getelementptr inbounds [2048 x i32], ptr %4, i64 0, i64 0
  %14 = load ptr, ptr %3, align 8, !tbaa !8
  call void @_Z8wcsncpyzPwPKwm(ptr noundef %13, ptr noundef %14, i64 noundef 2048)
  call void @llvm.lifetime.start.p0(i64 8, ptr %6) #11
  %15 = getelementptr inbounds [2048 x i32], ptr %4, i64 0, i64 0
  %16 = getelementptr inbounds [2048 x i32], ptr %4, i64 0, i64 0
  %17 = call i64 @wcslen(ptr noundef %16) #12
  %18 = getelementptr inbounds nuw i32, ptr %15, i64 %17
  %19 = getelementptr inbounds i32, ptr %18, i64 -1
  store ptr %19, ptr %6, align 8, !tbaa !8
  br label %20

20:                                               ; preds = %47, %12
  %21 = load ptr, ptr %6, align 8, !tbaa !8
  %22 = getelementptr inbounds [2048 x i32], ptr %4, i64 0, i64 0
  %23 = icmp ugt ptr %21, %22
  br i1 %23, label %25, label %24

24:                                               ; preds = %20
  store i32 2, ptr %5, align 4
  br label %50

25:                                               ; preds = %20
  %26 = load ptr, ptr %6, align 8, !tbaa !8
  %27 = load i32, ptr %26, align 4, !tbaa !81
  %28 = call noundef zeroext i1 @_Z9IsPathDivi(i32 noundef %27)
  br i1 %28, label %29, label %46

29:                                               ; preds = %25
  %30 = load ptr, ptr %6, align 8, !tbaa !8
  store i32 0, ptr %30, align 4, !tbaa !81
  call void @llvm.lifetime.start.p0(i64 8240, ptr %7) #11
  call void @_ZN8FindDataC2Ev(ptr noundef nonnull align 8 dereferenceable(8237) %7)
  %31 = getelementptr inbounds [2048 x i32], ptr %4, i64 0, i64 0
  %32 = call noundef zeroext i1 @_ZN8FindFile8FastFindEPKwP8FindDatab(ptr noundef %31, ptr noundef %7, i1 noundef zeroext true)
  br i1 %32, label %33, label %42

33:                                               ; preds = %29
  %34 = getelementptr inbounds nuw %struct.FindData, ptr %7, i32 0, i32 4
  %35 = load i8, ptr %34, align 1, !tbaa !108, !range !29, !noundef !30
  %36 = trunc i8 %35 to i1
  br i1 %36, label %41, label %37

37:                                               ; preds = %33
  %38 = getelementptr inbounds nuw %struct.FindData, ptr %7, i32 0, i32 3
  %39 = load i8, ptr %38, align 4, !tbaa !110, !range !29, !noundef !30
  %40 = trunc i8 %39 to i1
  br i1 %40, label %42, label %41

41:                                               ; preds = %37, %33
  store i1 true, ptr %2, align 1
  store i32 1, ptr %5, align 4
  br label %43

42:                                               ; preds = %37, %29
  store i32 0, ptr %5, align 4
  br label %43

43:                                               ; preds = %42, %41
  call void @llvm.lifetime.end.p0(i64 8240, ptr %7) #11
  %44 = load i32, ptr %5, align 4
  switch i32 %44, label %50 [
    i32 0, label %45
  ]

45:                                               ; preds = %43
  br label %46

46:                                               ; preds = %45, %25
  br label %47

47:                                               ; preds = %46
  %48 = load ptr, ptr %6, align 8, !tbaa !8
  %49 = getelementptr inbounds i32, ptr %48, i32 -1
  store ptr %49, ptr %6, align 8, !tbaa !8
  br label %20, !llvm.loop !111

50:                                               ; preds = %43, %24
  call void @llvm.lifetime.end.p0(i64 8, ptr %6) #11
  %51 = load i32, ptr %5, align 4
  switch i32 %51, label %53 [
    i32 2, label %52
  ]

52:                                               ; preds = %50
  store i1 false, ptr %2, align 1
  store i32 1, ptr %5, align 4
  br label %53

53:                                               ; preds = %52, %50, %11
  call void @llvm.lifetime.end.p0(i64 8192, ptr %4) #11
  %54 = load i1, ptr %2, align 1
  ret i1 %54
}

; Function Attrs: mustprogress uwtable
define noundef zeroext i1 @_Z21IsRelativeSymlinkSafeP11CommandDataPKwS2_S2_(ptr noundef %0, ptr noundef %1, ptr noundef %2, ptr noundef %3) #0 {
  %5 = alloca i1, align 1
  %6 = alloca ptr, align 8
  %7 = alloca ptr, align 8
  %8 = alloca ptr, align 8
  %9 = alloca ptr, align 8
  %10 = alloca i32, align 4
  %11 = alloca i32, align 4
  %12 = alloca i8, align 1
  %13 = alloca i32, align 4
  %14 = alloca i32, align 4
  %15 = alloca i64, align 8
  %16 = alloca i32, align 4
  store ptr %0, ptr %6, align 8, !tbaa !3
  store ptr %1, ptr %7, align 8, !tbaa !8
  store ptr %2, ptr %8, align 8, !tbaa !8
  store ptr %3, ptr %9, align 8, !tbaa !8
  %17 = load ptr, ptr %7, align 8, !tbaa !8
  %18 = call noundef zeroext i1 @_Z14IsFullRootPathPKw(ptr noundef %17)
  br i1 %18, label %22, label %19

19:                                               ; preds = %4
  %20 = load ptr, ptr %9, align 8, !tbaa !8
  %21 = call noundef zeroext i1 @_Z14IsFullRootPathPKw(ptr noundef %20)
  br i1 %21, label %22, label %23

22:                                               ; preds = %19, %4
  store i1 false, ptr %5, align 1
  br label %122

23:                                               ; preds = %19
  call void @llvm.lifetime.start.p0(i64 4, ptr %10) #11
  store i32 0, ptr %10, align 4, !tbaa !87
  call void @llvm.lifetime.start.p0(i64 4, ptr %11) #11
  store i32 0, ptr %11, align 4, !tbaa !87
  br label %24

24:                                               ; preds = %70, %23
  %25 = load ptr, ptr %9, align 8, !tbaa !8
  %26 = load i32, ptr %25, align 4, !tbaa !81
  %27 = icmp ne i32 %26, 0
  br i1 %27, label %29, label %28

28:                                               ; preds = %24
  call void @llvm.lifetime.end.p0(i64 4, ptr %11) #11
  br label %73

29:                                               ; preds = %24
  call void @llvm.lifetime.start.p0(i64 1, ptr %12) #11
  %30 = load ptr, ptr %9, align 8, !tbaa !8
  %31 = getelementptr inbounds i32, ptr %30, i64 0
  %32 = load i32, ptr %31, align 4, !tbaa !81
  %33 = icmp eq i32 %32, 46
  br i1 %33, label %34, label %59

34:                                               ; preds = %29
  %35 = load ptr, ptr %9, align 8, !tbaa !8
  %36 = getelementptr inbounds i32, ptr %35, i64 1
  %37 = load i32, ptr %36, align 4, !tbaa !81
  %38 = icmp eq i32 %37, 46
  br i1 %38, label %39, label %59

39:                                               ; preds = %34
  %40 = load ptr, ptr %9, align 8, !tbaa !8
  %41 = getelementptr inbounds i32, ptr %40, i64 2
  %42 = load i32, ptr %41, align 4, !tbaa !81
  %43 = call noundef zeroext i1 @_Z9IsPathDivi(i32 noundef %42)
  br i1 %43, label %49, label %44

44:                                               ; preds = %39
  %45 = load ptr, ptr %9, align 8, !tbaa !8
  %46 = getelementptr inbounds i32, ptr %45, i64 2
  %47 = load i32, ptr %46, align 4, !tbaa !81
  %48 = icmp eq i32 %47, 0
  br i1 %48, label %49, label %59

49:                                               ; preds = %44, %39
  %50 = load i32, ptr %11, align 4, !tbaa !87
  %51 = icmp eq i32 %50, 0
  br i1 %51, label %57, label %52

52:                                               ; preds = %49
  %53 = load ptr, ptr %9, align 8, !tbaa !8
  %54 = getelementptr inbounds i32, ptr %53, i64 -1
  %55 = load i32, ptr %54, align 4, !tbaa !81
  %56 = call noundef zeroext i1 @_Z9IsPathDivi(i32 noundef %55)
  br label %57

57:                                               ; preds = %52, %49
  %58 = phi i1 [ true, %49 ], [ %56, %52 ]
  br label %59

59:                                               ; preds = %57, %44, %34, %29
  %60 = phi i1 [ false, %44 ], [ false, %34 ], [ false, %29 ], [ %58, %57 ]
  %61 = zext i1 %60 to i8
  store i8 %61, ptr %12, align 1, !tbaa !31
  %62 = load i8, ptr %12, align 1, !tbaa !31, !range !29, !noundef !30
  %63 = trunc i8 %62 to i1
  br i1 %63, label %64, label %67

64:                                               ; preds = %59
  %65 = load i32, ptr %10, align 4, !tbaa !87
  %66 = add nsw i32 %65, 1
  store i32 %66, ptr %10, align 4, !tbaa !87
  br label %67

67:                                               ; preds = %64, %59
  %68 = load ptr, ptr %9, align 8, !tbaa !8
  %69 = getelementptr inbounds nuw i32, ptr %68, i32 1
  store ptr %69, ptr %9, align 8, !tbaa !8
  call void @llvm.lifetime.end.p0(i64 1, ptr %12) #11
  br label %70

70:                                               ; preds = %67
  %71 = load i32, ptr %11, align 4, !tbaa !87
  %72 = add nsw i32 %71, 1
  store i32 %72, ptr %11, align 4, !tbaa !87
  br label %24, !llvm.loop !105

73:                                               ; preds = %28
  %74 = load i32, ptr %10, align 4, !tbaa !87
  %75 = icmp sgt i32 %74, 0
  br i1 %75, label %76, label %80

76:                                               ; preds = %73
  %77 = load ptr, ptr %8, align 8, !tbaa !8
  %78 = call noundef zeroext i1 @_ZL10LinkInPathPKw(ptr noundef %77)
  br i1 %78, label %79, label %80

79:                                               ; preds = %76
  store i1 false, ptr %5, align 1
  store i32 1, ptr %13, align 4
  br label %121

80:                                               ; preds = %76, %73
  call void @llvm.lifetime.start.p0(i64 4, ptr %14) #11
  %81 = load ptr, ptr %7, align 8, !tbaa !8
  %82 = call noundef i32 @_ZL16CalcAllowedDepthPKw(ptr noundef %81)
  store i32 %82, ptr %14, align 4, !tbaa !87
  call void @llvm.lifetime.start.p0(i64 8, ptr %15) #11
  %83 = load ptr, ptr %6, align 8, !tbaa !3
  %84 = getelementptr inbounds nuw %class.RAROptions, ptr %83, i32 0, i32 10
  %85 = getelementptr inbounds [2048 x i32], ptr %84, i64 0, i64 0
  %86 = call i64 @wcslen(ptr noundef %85) #12
  store i64 %86, ptr %15, align 8, !tbaa !10
  %87 = load i64, ptr %15, align 8, !tbaa !10
  %88 = icmp ugt i64 %87, 0
  br i1 %88, label %89, label %109

89:                                               ; preds = %80
  %90 = load ptr, ptr %8, align 8, !tbaa !8
  %91 = load ptr, ptr %6, align 8, !tbaa !3
  %92 = getelementptr inbounds nuw %class.RAROptions, ptr %91, i32 0, i32 10
  %93 = getelementptr inbounds [2048 x i32], ptr %92, i64 0, i64 0
  %94 = load i64, ptr %15, align 8, !tbaa !10
  %95 = call i32 @wcsncmp(ptr noundef %90, ptr noundef %93, i64 noundef %94) #12
  %96 = icmp eq i32 %95, 0
  br i1 %96, label %97, label %109

97:                                               ; preds = %89
  %98 = load i64, ptr %15, align 8, !tbaa !10
  %99 = load ptr, ptr %8, align 8, !tbaa !8
  %100 = getelementptr inbounds nuw i32, ptr %99, i64 %98
  store ptr %100, ptr %8, align 8, !tbaa !8
  br label %101

101:                                              ; preds = %105, %97
  %102 = load ptr, ptr %8, align 8, !tbaa !8
  %103 = load i32, ptr %102, align 4, !tbaa !81
  %104 = call noundef zeroext i1 @_Z9IsPathDivi(i32 noundef %103)
  br i1 %104, label %105, label %108

105:                                              ; preds = %101
  %106 = load ptr, ptr %8, align 8, !tbaa !8
  %107 = getelementptr inbounds nuw i32, ptr %106, i32 1
  store ptr %107, ptr %8, align 8, !tbaa !8
  br label %101, !llvm.loop !107

108:                                              ; preds = %101
  br label %109

109:                                              ; preds = %108, %89, %80
  call void @llvm.lifetime.start.p0(i64 4, ptr %16) #11
  %110 = load ptr, ptr %8, align 8, !tbaa !8
  %111 = call noundef i32 @_ZL16CalcAllowedDepthPKw(ptr noundef %110)
  store i32 %111, ptr %16, align 4, !tbaa !87
  %112 = load i32, ptr %14, align 4, !tbaa !87
  %113 = load i32, ptr %10, align 4, !tbaa !87
  %114 = icmp sge i32 %112, %113
  br i1 %114, label %115, label %119

115:                                              ; preds = %109
  %116 = load i32, ptr %16, align 4, !tbaa !87
  %117 = load i32, ptr %10, align 4, !tbaa !87
  %118 = icmp sge i32 %116, %117
  br label %119

119:                                              ; preds = %115, %109
  %120 = phi i1 [ false, %109 ], [ %118, %115 ]
  store i1 %120, ptr %5, align 1
  store i32 1, ptr %13, align 4
  call void @llvm.lifetime.end.p0(i64 4, ptr %16) #11
  call void @llvm.lifetime.end.p0(i64 8, ptr %15) #11
  call void @llvm.lifetime.end.p0(i64 4, ptr %14) #11
  br label %121

121:                                              ; preds = %119, %79
  call void @llvm.lifetime.end.p0(i64 4, ptr %10) #11
  br label %122

122:                                              ; preds = %121, %22
  %123 = load i1, ptr %5, align 1
  ret i1 %123
}