; Function Attrs: mustprogress uwtable
define noundef zeroext i1 @_Z21IsRelativeSymlinkSafeP11CommandDataPKwS2_S2_(ptr noundef readonly %0, ptr noundef %1, ptr noundef %2, ptr noundef %3) local_unnamed_addr #0 {
  %5 = alloca [2048 x i32], align 16
  %6 = alloca %struct.FindData, align 8
  %7 = tail call noundef zeroext i1 @_Z14IsFullRootPathPKw(ptr noundef %1)
  br i1 %7, label %74, label %8

8:                                                ; preds = %4
  %9 = tail call noundef zeroext i1 @_Z14IsFullRootPathPKw(ptr noundef %3)
  br i1 %9, label %74, label %.preheader

.preheader:                                       ; preds = %8, %.thread
  %.035 = phi i32 [ %34, %.thread ], [ 0, %8 ]
  %.033 = phi i32 [ %32, %.thread ], [ 0, %8 ]
  %.032 = phi ptr [ %33, %.thread ], [ %3, %8 ]
  %10 = load i32, ptr %.032, align 4, !tbaa !80
  switch i32 %10, label %.thread [
    i32 0, label %11
    i32 46, label %13
  ]

11:                                               ; preds = %.preheader
  %12 = icmp sgt i32 %.033, 0
  br i1 %12, label %35, label %57

13:                                               ; preds = %.preheader
  %14 = getelementptr inbounds nuw i8, ptr %.032, i64 4
  %15 = load i32, ptr %14, align 4, !tbaa !80
  %16 = icmp eq i32 %15, 46
  br i1 %16, label %17, label %.thread

17:                                               ; preds = %13
  %18 = getelementptr inbounds nuw i8, ptr %.032, i64 8
  %19 = load i32, ptr %18, align 4, !tbaa !80
  %20 = tail call noundef zeroext i1 @_Z9IsPathDivi(i32 noundef %19)
  br i1 %20, label %24, label %21

21:                                               ; preds = %17
  %22 = load i32, ptr %18, align 4, !tbaa !80
  %23 = icmp eq i32 %22, 0
  br i1 %23, label %24, label %.thread

24:                                               ; preds = %21, %17
  %25 = icmp eq i32 %.035, 0
  br i1 %25, label %.thread39, label %27

.thread39:                                        ; preds = %24
  %26 = add nsw i32 %.033, 1
  br label %.thread

27:                                               ; preds = %24
  %28 = getelementptr inbounds i8, ptr %.032, i64 -4
  %29 = load i32, ptr %28, align 4, !tbaa !80
  %30 = tail call noundef zeroext i1 @_Z9IsPathDivi(i32 noundef %29)
  %31 = zext i1 %30 to i32
  %spec.select = add nsw i32 %.033, %31
  br label %.thread

.thread:                                          ; preds = %27, %.preheader, %13, %21, %.thread39
  %32 = phi i32 [ %26, %.thread39 ], [ %.033, %21 ], [ %.033, %13 ], [ %.033, %.preheader ], [ %spec.select, %27 ]
  %33 = getelementptr inbounds nuw i8, ptr %.032, i64 4
  %34 = add nuw nsw i32 %.035, 1
  br label %.preheader, !llvm.loop !94

35:                                               ; preds = %11
  call void @llvm.lifetime.start.p0(i64 8192, ptr nonnull %5) #13
  %36 = tail call i64 @wcslen(ptr noundef %2) #14
  %37 = icmp ugt i64 %36, 2047
  br i1 %37, label %_ZL10LinkInPathPKw.exit.thread, label %38

38:                                               ; preds = %35
  call void @_Z8wcsncpyzPwPKwm(ptr noundef nonnull %5, ptr noundef %2, i64 noundef 2048)
  %39 = call i64 @wcslen(ptr noundef nonnull %5) #14
  %40 = getelementptr inbounds nuw i32, ptr %5, i64 %39
  %.013.i = getelementptr inbounds i8, ptr %40, i64 -4
  %.not14.i = icmp ugt ptr %.013.i, %5
  br i1 %.not14.i, label %.lr.ph.i, label %_ZL10LinkInPathPKw.exit

.lr.ph.i:                                         ; preds = %38
  %41 = getelementptr inbounds nuw i8, ptr %6, i64 8208
  %42 = getelementptr inbounds nuw i8, ptr %6, i64 8205
  %43 = getelementptr inbounds nuw i8, ptr %6, i64 8204
  br label %44

44:                                               ; preds = %56, %.lr.ph.i
  %.015.i = phi ptr [ %.013.i, %.lr.ph.i ], [ %.0.i, %56 ]
  %45 = load i32, ptr %.015.i, align 4, !tbaa !80
  %46 = call noundef zeroext i1 @_Z9IsPathDivi(i32 noundef %45)
  br i1 %46, label %47, label %56

47:                                               ; preds = %44
  store i32 0, ptr %.015.i, align 4, !tbaa !80
  call void @llvm.lifetime.start.p0(i64 8240, ptr nonnull %6) #13
  call void @llvm.memset.p0.i64(ptr noundef nonnull align 8 dereferenceable(24) %41, i8 0, i64 24, i1 false)
  %48 = call noundef zeroext i1 @_ZN8FindFile8FastFindEPKwP8FindDatab(ptr noundef nonnull %5, ptr noundef nonnull %6, i1 noundef zeroext true)
  br i1 %48, label %49, label %.critedge.i

49:                                               ; preds = %47
  %50 = load i8, ptr %42, align 1, !tbaa !95, !range !32, !noundef !33
  %51 = trunc nuw i8 %50 to i1
  br i1 %51, label %55, label %52

52:                                               ; preds = %49
  %53 = load i8, ptr %43, align 4, !tbaa !97, !range !32, !noundef !33
  %54 = trunc nuw i8 %53 to i1
  br i1 %54, label %.critedge.i, label %55

.critedge.i:                                      ; preds = %52, %47
  call void @llvm.lifetime.end.p0(i64 8240, ptr nonnull %6) #13
  br label %56

55:                                               ; preds = %52, %49
  call void @llvm.lifetime.end.p0(i64 8240, ptr nonnull %6) #13
  br label %_ZL10LinkInPathPKw.exit.thread

56:                                               ; preds = %.critedge.i, %44
  %.0.i = getelementptr inbounds i8, ptr %.015.i, i64 -4
  %.not.i = icmp ugt ptr %.0.i, %5
  br i1 %.not.i, label %44, label %_ZL10LinkInPathPKw.exit, !llvm.loop !98

_ZL10LinkInPathPKw.exit.thread:                   ; preds = %35, %55
  call void @llvm.lifetime.end.p0(i64 8192, ptr nonnull %5) #13
  br label %74

_ZL10LinkInPathPKw.exit:                          ; preds = %56, %38
  call void @llvm.lifetime.end.p0(i64 8192, ptr nonnull %5) #13
  br label %57

57:                                               ; preds = %_ZL10LinkInPathPKw.exit, %11
  %58 = call fastcc noundef i32 @_ZL16CalcAllowedDepthPKw(ptr noundef %1)
  %59 = getelementptr inbounds nuw i8, ptr %0, i64 16416
  %60 = call i64 @wcslen(ptr noundef nonnull %59) #14
  %.not38 = icmp eq i64 %60, 0
  br i1 %.not38, label %.loopexit, label %61

61:                                               ; preds = %57
  %62 = call i32 @wcsncmp(ptr noundef %2, ptr noundef nonnull %59, i64 noundef %60) #14
  %63 = icmp eq i32 %62, 0
  br i1 %63, label %64, label %.loopexit

64:                                               ; preds = %61
  %65 = getelementptr inbounds nuw i32, ptr %2, i64 %60
  br label %66

66:                                               ; preds = %66, %64
  %.131 = phi ptr [ %65, %64 ], [ %69, %66 ]
  %67 = load i32, ptr %.131, align 4, !tbaa !80
  %68 = call noundef zeroext i1 @_Z9IsPathDivi(i32 noundef %67)
  %69 = getelementptr inbounds nuw i8, ptr %.131, i64 4
  br i1 %68, label %66, label %.loopexit, !llvm.loop !99

.loopexit:                                        ; preds = %66, %61, %57
  %.030 = phi ptr [ %2, %61 ], [ %2, %57 ], [ %.131, %66 ]
  %70 = call fastcc noundef i32 @_ZL16CalcAllowedDepthPKw(ptr noundef %.030)
  %71 = icmp sge i32 %58, %.033
  %72 = icmp sge i32 %70, %.033
  %73 = and i1 %71, %72
  br label %74

74:                                               ; preds = %_ZL10LinkInPathPKw.exit.thread, %.loopexit, %4, %8
  %.0 = phi i1 [ false, %8 ], [ false, %4 ], [ %73, %.loopexit ], [ false, %_ZL10LinkInPathPKw.exit.thread ]
  ret i1 %.0
}